; Function Attrs: nounwind uwtable
define internal void @zend_closure_free_storage(ptr noundef %0) #0 {
  tail call void @zend_object_std_dtor(ptr noundef %0) #13
  %2 = getelementptr inbounds nuw i8, ptr %0, i64 56
  %3 = load i8, ptr %2, align 8, !tbaa !15
  switch i8 %3, label %zend_string_release.exit [
    i8 2, label %4
    i8 1, label %11
  ]

4:                                                ; preds = %1
  %5 = getelementptr inbounds nuw i8, ptr %0, i64 60
  %6 = load i32, ptr %5, align 4, !tbaa !15
  %7 = and i32 %6, 8388608
  %.not = icmp eq i32 %7, 0
  br i1 %.not, label %8, label %10

8:                                                ; preds = %4
  tail call void @zend_destroy_static_vars(ptr noundef nonnull %2) #13
  %9 = getelementptr inbounds nuw i8, ptr %0, i64 176
  store ptr null, ptr %9, align 8, !tbaa !15
  br label %10

10:                                               ; preds = %8, %4
  tail call void @destroy_op_array(ptr noundef nonnull %2) #13
  br label %zend_string_release.exit

11:                                               ; preds = %1
  %12 = getelementptr inbounds nuw i8, ptr %0, i64 64
  %13 = load ptr, ptr %12, align 8, !tbaa !15
  %14 = getelementptr inbounds nuw i8, ptr %13, i64 4
  %15 = load i32, ptr %14, align 4, !tbaa !15
  %16 = and i32 %15, 64
  %.not.i = icmp eq i32 %16, 0
  br i1 %.not.i, label %17, label %zend_string_release.exit

17:                                               ; preds = %11
  %18 = load i32, ptr %13, align 4, !tbaa !26
  %19 = icmp ne i32 %18, 0
  tail call void @llvm.assume(i1 %19)
  %20 = add i32 %18, -1
  store i32 %20, ptr %13, align 4, !tbaa !26
  %21 = icmp eq i32 %20, 0
  br i1 %21, label %22, label %zend_string_release.exit

22:                                               ; preds = %17
  %23 = and i32 %15, 128
  %.not5.i = icmp eq i32 %23, 0
  br i1 %.not5.i, label %25, label %24

24:                                               ; preds = %22
  tail call void @free(ptr noundef nonnull %13) #13
  br label %zend_string_release.exit

25:                                               ; preds = %22
  tail call void @_efree(ptr noundef nonnull %13) #13
  br label %zend_string_release.exit

zend_string_release.exit:                         ; preds = %25, %24, %17, %11, %1, %10
  %26 = getelementptr inbounds nuw i8, ptr %0, i64 320
  %27 = load i8, ptr %26, align 8, !tbaa !15
  %.not11 = icmp eq i8 %27, 0
  br i1 %.not11, label %30, label %28

28:                                               ; preds = %zend_string_release.exit
  %29 = getelementptr inbounds nuw i8, ptr %0, i64 312
  tail call void @zval_ptr_dtor(ptr noundef nonnull %29) #13
  br label %30

30:                                               ; preds = %28, %zend_string_release.exit
  ret void
}